; Function Attrs: nounwind uwtable
define ptr @l_Or_by__cases_x27___rarg(i8 noundef zeroext %0, ptr noundef readnone captures(none) %1, ptr noundef readnone captures(none) %2, ptr noundef %3, ptr noundef %4) local_unnamed_addr #0 {
  %6 = icmp eq i8 %0, 0
  br i1 %6, label %7, label %17

7:                                                ; preds = %5
  %8 = ptrtoint ptr %4 to i64
  %9 = and i64 %8, 1
  %.not10 = icmp eq i64 %9, 0
  br i1 %.not10, label %10, label %lean_dec.exit7

10:                                               ; preds = %7
  %11 = load i32, ptr %4, align 4, !tbaa !4
  %12 = icmp sgt i32 %11, 1
  br i1 %12, label %13, label %15, !prof !9

13:                                               ; preds = %10
  %14 = add nsw i32 %11, -1
  store i32 %14, ptr %4, align 4, !tbaa !4
  br label %lean_dec.exit7

15:                                               ; preds = %10
  %.not.i = icmp eq i32 %11, 0
  br i1 %.not.i, label %lean_dec.exit7, label %16

16:                                               ; preds = %15
  tail call void @lean_dec_ref_cold(ptr noundef nonnull %4) #4
  br label %lean_dec.exit7

17:                                               ; preds = %5
  %18 = ptrtoint ptr %3 to i64
  %19 = and i64 %18, 1
  %.not = icmp eq i64 %19, 0
  br i1 %.not, label %20, label %lean_dec.exit7

20:                                               ; preds = %17
  %21 = load i32, ptr %3, align 4, !tbaa !4
  %22 = icmp sgt i32 %21, 1
  br i1 %22, label %23, label %25, !prof !9

23:                                               ; preds = %20
  %24 = add nsw i32 %21, -1
  store i32 %24, ptr %3, align 4, !tbaa !4
  br label %lean_dec.exit7

25:                                               ; preds = %20
  %.not.i8 = icmp eq i32 %21, 0
  br i1 %.not.i8, label %lean_dec.exit7, label %26

26:                                               ; preds = %25
  tail call void @lean_dec_ref_cold(ptr noundef nonnull %3) #4
  br label %lean_dec.exit7

lean_dec.exit7:                                   ; preds = %17, %23, %25, %26, %7, %13, %15, %16
  %.sink = phi ptr [ %3, %16 ], [ %3, %15 ], [ %3, %13 ], [ %3, %7 ], [ %4, %26 ], [ %4, %25 ], [ %4, %23 ], [ %4, %17 ]
  %27 = tail call ptr @lean_apply_1(ptr noundef %.sink, ptr noundef nonnull inttoptr (i64 1 to ptr)) #4
  ret ptr %27
}